; Function Attrs: mustprogress nounwind uwtable
define dso_local void @_ZN5clang18OMPGrainsizeClause13used_childrenEv(ptr dead_on_unwind noalias writable writeonly sret(%"class.llvm::iterator_range") align 8 captures(none) initializes((0, 16), (24, 40)) %0, ptr noundef nonnull align 8 dereferenceable(48) %1) local_unnamed_addr #1 align 2 {
  %3 = getelementptr inbounds nuw i8, ptr %1, i64 16
  %4 = load ptr, ptr %3, align 8
  %.not.i = icmp eq ptr %4, null
  br i1 %.not.i, label %_ZL22getAddrOfExprAsWrittenPN5clang4StmtE.exit.thread, label %5

5:                                                ; preds = %2
  %6 = load i8, ptr %4, align 8
  %.not14.i = icmp eq i8 %6, -25
  br i1 %.not14.i, label %7, label %_ZL22getAddrOfExprAsWrittenPN5clang4StmtE.exit.thread

7:                                                ; preds = %5
  %8 = getelementptr inbounds nuw i8, ptr %4, i64 8
  %9 = load ptr, ptr %8, align 8
  %10 = getelementptr inbounds nuw i8, ptr %9, i64 28
  %11 = load i32, ptr %10, align 4
  %12 = and i32 %11, 127
  %13 = icmp ne i32 %12, 41
  %.not1115.i = icmp eq ptr %9, null
  %.not11.i = or i1 %.not1115.i, %13
  br i1 %.not11.i, label %_ZL22getAddrOfExprAsWrittenPN5clang4StmtE.exit.thread, label %_ZL22getAddrOfExprAsWrittenPN5clang4StmtE.exit

_ZL22getAddrOfExprAsWrittenPN5clang4StmtE.exit:   ; preds = %7
  %14 = tail call noundef ptr @_ZN5clang7VarDecl14getInitAddressEv(ptr noundef nonnull align 8 dereferenceable(100) %9) #22
  %.not = icmp eq ptr %14, null
  br i1 %.not, label %_ZL22getAddrOfExprAsWrittenPN5clang4StmtE.exit.thread, label %15

15:                                               ; preds = %_ZL22getAddrOfExprAsWrittenPN5clang4StmtE.exit
  %16 = getelementptr inbounds nuw i8, ptr %14, i64 8
  br label %19

_ZL22getAddrOfExprAsWrittenPN5clang4StmtE.exit.thread: ; preds = %5, %7, %2, %_ZL22getAddrOfExprAsWrittenPN5clang4StmtE.exit
  %17 = getelementptr inbounds nuw i8, ptr %1, i64 40
  %18 = getelementptr inbounds nuw i8, ptr %1, i64 48
  br label %19

19:                                               ; preds = %_ZL22getAddrOfExprAsWrittenPN5clang4StmtE.exit.thread, %15
  %.sink26 = phi ptr [ %17, %_ZL22getAddrOfExprAsWrittenPN5clang4StmtE.exit.thread ], [ %14, %15 ]
  %.sink = phi ptr [ %18, %_ZL22getAddrOfExprAsWrittenPN5clang4StmtE.exit.thread ], [ %16, %15 ]
  store ptr %.sink26, ptr %0, align 8
  %.sroa.418.0..sroa_idx = getelementptr inbounds nuw i8, ptr %0, i64 8
  store i64 0, ptr %.sroa.418.0..sroa_idx, align 8
  %20 = getelementptr inbounds nuw i8, ptr %0, i64 24
  store ptr %.sink, ptr %20, align 8
  %.sroa.421.0..sroa_idx = getelementptr inbounds nuw i8, ptr %0, i64 32
  store i64 0, ptr %.sroa.421.0..sroa_idx, align 8
  ret void
}